; ModuleID = '42/242.c'
source_filename = "42/242.c"
target datalayout = "e-m:e-p270:32:32-p271:32:32-p272:64:64-i64:64-f80:128-n8:16:32:64-S128"
target triple = "x86_64-pc-linux-gnu"

@.str = private unnamed_addr constant [3 x i8] c"%d\00", align 1
@.str.1 = private unnamed_addr constant [4 x i8] c"%ld\00", align 1
@.str.2 = private unnamed_addr constant [5 x i8] c" %ld\00", align 1

; Function Attrs: noinline nounwind uwtable
define dso_local void @main() #0 {
  %1 = alloca i32, align 4
  %2 = alloca i32, align 4
  %3 = alloca i32, align 4
  %4 = alloca i64, align 8
  %5 = alloca [100000 x i64], align 16
  %6 = call i32 (i8*, ...) @__isoc99_scanf(i8* getelementptr inbounds ([3 x i8], [3 x i8]* @.str, i64 0, i64 0), i32* %3)
  store i32 0, i32* %1, align 4
  br label %7

7:                                                ; preds = %16, %0
  %8 = load i32, i32* %1, align 4
  %9 = load i32, i32* %3, align 4
  %10 = icmp slt i32 %8, %9
  br i1 %10, label %11, label %19

11:                                               ; preds = %7
  %12 = load i32, i32* %1, align 4
  %13 = sext i32 %12 to i64
  %14 = getelementptr inbounds [100000 x i64], [100000 x i64]* %5, i64 0, i64 %13
  %15 = call i32 (i8*, ...) @__isoc99_scanf(i8* getelementptr inbounds ([4 x i8], [4 x i8]* @.str.1, i64 0, i64 0), i64* %14)
  br label %16

16:                                               ; preds = %11
  %17 = load i32, i32* %1, align 4
  %18 = add nsw i32 %17, 1
  store i32 %18, i32* %1, align 4
  br label %7

19:                                               ; preds = %7
  %20 = call i32 (i8*, ...) @__isoc99_scanf(i8* getelementptr inbounds ([4 x i8], [4 x i8]* @.str.1, i64 0, i64 0), i64* %4)
  store i32 0, i32* %1, align 4
  br label %21

21:                                               ; preds = %56, %19
  %22 = load i32, i32* %1, align 4
  %23 = load i32, i32* %3, align 4
  %24 = icmp slt i32 %22, %23
  br i1 %24, label %25, label %59

25:                                               ; preds = %21
  %26 = load i32, i32* %1, align 4
  %27 = sext i32 %26 to i64
  %28 = getelementptr inbounds [100000 x i64], [100000 x i64]* %5, i64 0, i64 %27
  %29 = load i64, i64* %28, align 8
  %30 = load i64, i64* %4, align 8
  %31 = icmp eq i64 %29, %30
  br i1 %31, label %32, label %55

32:                                               ; preds = %25
  %33 = load i32, i32* %1, align 4
  store i32 %33, i32* %2, align 4
  br label %34

34:                                               ; preds = %47, %32
  %35 = load i32, i32* %2, align 4
  %36 = load i32, i32* %3, align 4
  %37 = icmp slt i32 %35, %36
  br i1 %37, label %38, label %50

38:                                               ; preds = %34
  %39 = load i32, i32* %2, align 4
  %40 = add nsw i32 %39, 1
  %41 = sext i32 %40 to i64
  %42 = getelementptr inbounds [100000 x i64], [100000 x i64]* %5, i64 0, i64 %41
  %43 = load i64, i64* %42, align 8
  %44 = load i32, i32* %2, align 4
  %45 = sext i32 %44 to i64
  %46 = getelementptr inbounds [100000 x i64], [100000 x i64]* %5, i64 0, i64 %45
  store i64 %43, i64* %46, align 8
  br label %47

47:                                               ; preds = %38
  %48 = load i32, i32* %2, align 4
  %49 = add nsw i32 %48, 1
  store i32 %49, i32* %2, align 4
  br label %34

50:                                               ; preds = %34
  %51 = load i32, i32* %1, align 4
  %52 = sub nsw i32 %51, 1
  store i32 %52, i32* %1, align 4
  %53 = load i32, i32* %3, align 4
  %54 = sub nsw i32 %53, 1
  store i32 %54, i32* %3, align 4
  br label %55

55:                                               ; preds = %50, %25
  br label %56

56:                                               ; preds = %55
  %57 = load i32, i32* %1, align 4
  %58 = add nsw i32 %57, 1
  store i32 %58, i32* %1, align 4
  br label %21

59:                                               ; preds = %21
  %60 = getelementptr inbounds [100000 x i64], [100000 x i64]* %5, i64 0, i64 0
  %61 = load i64, i64* %60, align 16
  %62 = call i32 (i8*, ...) @printf(i8* getelementptr inbounds ([4 x i8], [4 x i8]* @.str.1, i64 0, i64 0), i64 %61)
  store i32 1, i32* %1, align 4
  br label %63

63:                                               ; preds = %73, %59
  %64 = load i32, i32* %1, align 4
  %65 = load i32, i32* %3, align 4
  %66 = icmp slt i32 %64, %65
  br i1 %66, label %67, label %76

67:                                               ; preds = %63
  %68 = load i32, i32* %1, align 4
  %69 = sext i32 %68 to i64
  %70 = getelementptr inbounds [100000 x i64], [100000 x i64]* %5, i64 0, i64 %69
  %71 = load i64, i64* %70, align 8
  %72 = call i32 (i8*, ...) @printf(i8* getelementptr inbounds ([5 x i8], [5 x i8]* @.str.2, i64 0, i64 0), i64 %71)
  br label %73

73:                                               ; preds = %67
  %74 = load i32, i32* %1, align 4
  %75 = add nsw i32 %74, 1
  store i32 %75, i32* %1, align 4
  br label %63

76:                                               ; preds = %63
  ret void
}

declare dso_local i32 @__isoc99_scanf(i8*, ...) #1

declare dso_local i32 @printf(i8*, ...) #1


!llvm.module.flags = !{!0}
!llvm.ident = !{!1}

!0 = !{i32 1, !"wchar_size", i32 4}
!1 = !{!"clang version 10.0.0-4ubuntu1 "}
